(dp0
Vsg_bundle_data
p1
(dp2
Vtype
p3
VCustomNonProjectEntity02
p4
sVid
p5
I53
sVsg_system_name
p6
Vtk-nuke-writenode
p7
sVsg_status_list
p8
Vdepl
p9
sVsg_deprecation_message
p10
NssVsg_version_data
p11
(dp12
Vtype
p13
VCustomNonProjectEntity05
p14
sVid
p15
I5433
sVcode
p16
Vv1.6.2
p17
sVsg_status_list
p18
Vprod
p19
sVdescription
p20
VFixed path normalization to support Nuke 13+
p21
sVtags
p22
(lp23
sVsg_detailed_release_notes
p24
(dp25
Vurl
p26
Vhttps://community.shotgridsoftware.com/t/a-new-version-of-tk-nuke-writenode-has-been-released/14153/4
p27
sVname
p28
Vv1.6.2
p29
sVcontent_type
p30
NsVlink_type
p31
Vweb
p32
sg13
VAttachment
p33
sg15
I29936
ssVsg_documentation
p34
(dp35
g26
Vhttps://developer.shotgridsoftware.com/219032848
p36
sg28
VDocumentation
p37
sg30
Nsg31
Vweb
p38
sg13
VAttachment
p39
sg15
I29934
ssVsg_payload
p40
(dp41
g26
Vhttps://s3-proxy.shotgunstudio.com/d18c13bf0e59a9a82f18be518a1b6b508bcbd774/69ab5cfa673b80ea189a293be0b810ad83e0b3ed/tk-nuke-writenode_v1.6.2.zip?response-content-disposition=filename%3D%22tk-nuke-writenode_v1.6.2.zip%22&x-amz-meta-user-id=42&x-amz-meta-user-type=ApiUser&X-Amz-Algorithm=AWS4-HMAC-SHA256&X-Amz-Credential=ASIAYJG6Z4JIVL2JGO2Q%2F20231115%2Fus-west-2%2Fs3%2Faws4_request&X-Amz-Date=20231115T013830Z&X-Amz-SignedHeaders=host&X-Amz-Expires=900&X-Amz-Security-Token=IQoJb3JpZ2luX2VjECEaCXVzLWVhc3QtMSJHMEUCIQDteA2AzRfBxVhl3A3aTyyVFWo%2Bv6tOQNRPWQh5c6Mo9QIgG%2BqE8yM5UzSQQ%2BRAI0qZl28oe%2F5lL5xboHEO4AHfsiEqmAIIahAAGgw1Njk1NTA0MzA4MDEiDIqWis4%2BFpJTgIlGcir1AfNmVUE3c1ia3a8okANd%2BFByB%2FcoDsgW40Bd42X5ygavuqlMt9S5iBePAusdMXnNiSSMeXrcGPLt%2B2PfGs0um0Y2pdseBmTmWkIg67Un3OFxHDZ86qySlXj9qoYHXdH%2BpZT2hzFuzY0Rw5Igrpr2Vdq6AxCuf%2FVe%2F4EnU9dpjAeC2BfNwHuMXXy1aqNEmNbJFsJzUbXe4CeTmZ3lyBGbJbVYNAwqgw21segkoEHHBDK%2Bv1vxBgJURLVOjtIavtq0U9mhK7BMIjZkDqBW3Yw8npYaD24j8W8zaMm%2BipbDb3W%2FeS5sk9%2FRrbfPjeRHnc7tiMz96jQbML6x0KoGOp0BN%2FlIcwYnqO2rqbn0ru%2FEJlElYUiTl8PY6RBEl1zOo1yWk71aqwIBrvnU2Q4ndY7b1KsdJEoIlUV0KCL6KQG%2FI9sFZ7qApcWczGd6p6IzVBWyw4lC0mJKGv%2Bby4osX4axAEAkjGsM1QCXF8nci5AzCYHiVw58yLweXpk2B0UFUrL4THogCQCVkyGQMBUs0LiCf5lStnaobRjkzwa2Eg%3D%3D&X-Amz-Signature=93cf4b5fc9165fe2251345e5bd06f869b3c4dd7034367799ffb631b89b1eee45
p42
sg28
Vtk-nuke-writenode_v1.6.2.zip
p43
sg30
Vapplication/zip
p44
sg31
Vupload
p45
sg13
VAttachment
p46
sg15
I29935
sss.