(dp0
Vsg_bundle_data
p1
NsVsg_version_data
p2
(dp3
Vtype
p4
VCustomNonProjectEntity01
p5
sVid
p6
I1958
sVcode
p7
Vv0.20.22
p8
sVsg_status_list
p9
Vprod
p10
sVdescription
p11
V## What's Changed
p12
sVtags
p13
(lp14
sVsg_detailed_release_notes
p15
(dp16
Vurl
p17
Vhttps://community.shotgridsoftware.com/t/a-new-version-of-tk-core-has-been-released/13647/18
p18
sVname
p19
Vv0.20.22
p20
sVcontent_type
p21
NsVlink_type
p22
Vweb
p23
sg4
VAttachment
p24
sg6
I30567
ssVsg_documentation
p25
(dp26
g17
Vhttps://developer.shotgridsoftware.com/d587be80/?title=Integrations+User+Guide
p27
sg19
VDocumentation
p28
sg21
Nsg22
Vweb
p29
sg4
VAttachment
p30
sg6
I30565
ssVsg_payload
p31
(dp32
g17
Vhttps://s3-proxy.shotgunstudio.com/d18c13bf0e59a9a82f18be518a1b6b508bcbd774/be7dd5e186e9f0085b39494ce1868fe9b4edf1d2/sgtk_core_v0.20.22.zip?response-content-disposition=filename%3D%22sgtk_core_v0.20.22.zip%22&x-amz-meta-user-id=42&x-amz-meta-user-type=ApiUser&X-Amz-Algorithm=AWS4-HMAC-SHA256&X-Amz-Credential=ASIAYJG6Z4JIXSN6YMJW%2F20231206%2Fus-west-2%2Fs3%2Faws4_request&X-Amz-Date=20231206T022104Z&X-Amz-SignedHeaders=host&X-Amz-Expires=900&X-Amz-Security-Token=IQoJb3JpZ2luX2VjEBoaCXVzLWVhc3QtMSJHMEUCIQDcYDx21VA3Q1q%2F0r2mwLHFnFshX4ONuw%2FGm6ONx6i9VgIgRM4CYc6fDBYPkNpUx3ycvDjPxTfJ%2BdNC4GZn70zY7QEqoQIIg%2F%2F%2F%2F%2F%2F%2F%2F%2F%2F%2FARAAGgw1Njk1NTA0MzA4MDEiDGeZrE4iX%2B1JozjIxir1AZj1asm7mgD%2BXYrlf8CY1LXm4yg5%2F2OvLCl3SM4v7RfcEAz9tgyz%2FYnCHxI5WkhEP9Df%2BY2vo2OQ5Gf2IRi9hkDGNqj9QMkKysRCDqsbk6bymrqGZWJbG8nUH5a6QEqKiK1qvhkIyYKlvy7u57sgh1SSon044lEoFfpObfYWXuKvW62vEk1by6dpATT4xIuYJs%2Bh%2Fz63jdxUnI0GGWkd4qfB71Y6dO%2FNUEoakz8JRUL2Ri4V0wmsFO2UU8iqatAv4qM9lnXwa2kuBprspKldDwTiYhSTu2vBn7xfD2rJTf3mJ9JNb8SgFVxBjaQO62Tt0KZQPGFJMLWov6sGOp0Be5sfyMLOLIm8TouQTzQAxv4gARjK%2Bk94WbGPRu8IGkrNNJGzu3wfgNKw66OPGRWpOSNJmnFqLOiILZYJaksKsq%2Fu%2F9Z5CKsfR747s133b9VONhnGNyVyPnTH0GtQPyGkEE%2FznRse3%2BFUuiCiPeGrcroaW4Ce0Hb7uuAvQb4ZtvrBv33ka5L%2BtBMYPyFPzwWLa%2BHImEouSKbYMhcuIQ%3D%3D&X-Amz-Signature=9dc465a138a8275dd7c641f003cfaedea354a31cdd9849a98263e5cf1b4c5e82
p33
sg19
Vsgtk_core_v0.20.22.zip
p34
sg21
Vapplication/zip
p35
sg22
Vupload
p36
sg4
VAttachment
p37
sg6
I30566
sss.