(dp0
Vsg_bundle_data
p1
(dp2
Vtype
p3
VCustomNonProjectEntity02
p4
sVid
p5
I16
sVsg_system_name
p6
Vtk-shotgun-launchfolder
p7
sVsg_status_list
p8
Vdepl
p9
sVsg_deprecation_message
p10
NssVsg_version_data
p11
(dp12
Vtype
p13
VCustomNonProjectEntity05
p14
sVid
p15
I4430
sVcode
p16
Vv0.3.1
p17
sVsg_status_list
p18
Vprod
p19
sVdescription
p20
VReplacing shotgunsoftware urls with Autodesk Knowledge Network and ShotGrid Developer Documentation pages.
p21
sVtags
p22
(lp23
sVsg_detailed_release_notes
p24
(dp25
Vurl
p26
Vhttps://community.shotgridsoftware.com/t/a-new-version-of-tk-shotgun-launchfolder-has-been-released/14159/3
p27
sVname
p28
Vv0.3.1
p29
sVcontent_type
p30
NsVlink_type
p31
Vweb
p32
sg13
VAttachment
p33
sg15
I27052
ssVsg_documentation
p34
(dp35
g26
Vhttps://developer.shotgridsoftware.com/219032898
p36
sg28
VDocumentation
p37
sg30
Nsg31
Vweb
p38
sg13
VAttachment
p39
sg15
I26982
ssVsg_payload
p40
(dp41
g26
Vhttps://s3-proxy.shotgunstudio.com/d18c13bf0e59a9a82f18be518a1b6b508bcbd774/d8d03cc551275dadbec92390824a7a7d96ed946e/tk-shotgun-launchfolder_v0.3.1.zip?response-content-disposition=filename%3D%22tk-shotgun-launchfolder_v0.3.1.zip%22&x-amz-meta-user-id=42&x-amz-meta-user-type=ApiUser&X-Amz-Algorithm=AWS4-HMAC-SHA256&X-Amz-Credential=ASIAYJG6Z4JI6OW5CT5U%2F20231115%2Fus-west-2%2Fs3%2Faws4_request&X-Amz-Date=20231115T013526Z&X-Amz-SignedHeaders=host&X-Amz-Expires=900&X-Amz-Security-Token=IQoJb3JpZ2luX2VjECEaCXVzLWVhc3QtMSJHMEUCIFKjF%2Fp1GHUUQfUMKqLG5%2FOMMCbnOaQb3UHbdDwcARqjAiEA9IP0rHLWmpqA0Qnk%2FNf8kJLxK36p0Crj5ZicadiaPBYqmAIIahAAGgw1Njk1NTA0MzA4MDEiDCckdOzPaS4L3v7bdir1AU2F26vV8kYgXudH0poLpy%2FQSRibmxkCyyuoSD7fjFEy0mOjmlprf73F2C8JYqMbxtqzr0Fg47jQFrJU6TqokKaRF87ImPYT3eRH5Wz5pSvGUJy2N0RYexPL4DQkZ3J%2BIHd4B9j6stosZpkkGbiGVdBQ8b3MPNjG5hSOV6NvoIVHvSEcTj%2BId60OkNU6X3YDq7vjkdQkIplDchi8JHZB2hNGvJFrmbnMCcnPoXaZ0sf4fOAhy4Vl%2BQ4pxRDZv7NIZglrOISHcevnCEb%2Bp4lSWOUan9SWS7o90i%2BSL%2F9Iv7nirgdpylVmyNHzpcsm7sxGnSz5bVy%2BMMqv0KoGOp0B5M3nZ9oaJHcNW8Qk1jUC6yVlWi3vU8X7O6M4aih5GY6Ly6aiBOvVsPLknzqrDMV3Y4%2BPMX2s1lljAd9N7p31o48megQh40job%2B%2Blxbmw9CS%2FWz%2Bq7FkhSJVMi%2FETFcypqe4UxivKVpHIAcd0t%2BrHvnLsjuusGUpuLm%2FKBtS5T5idnVKhuBMQMRWZOCr%2B8hAZ6ClRgukV1UYIso8wXg%3D%3D&X-Amz-Signature=cf63cf8add8a5cbd30a7f0b22652fecdb3ac1d48080955225c9896d850b595c2
p42
sg28
Vtk-shotgun-launchfolder_v0.3.1.zip
p43
sg30
Vapplication/zip
p44
sg31
Vupload
p45
sg13
VAttachment
p46
sg15
I26983
sss.