(dp0
Vsg_bundle_data
p1
(dp2
Vtype
p3
VCustomNonProjectEntity07
p4
sVid
p5
I81
sVsg_system_name
p6
Vtk-config-default2
p7
sVsg_status_list
p8
Vhidden
p9
sVsg_deprecation_message
p10
NssVsg_version_data
p11
(dp12
Vtype
p13
VCustomNonProjectEntity08
p14
sVid
p15
I2986
sVcode
p16
Vv1.6.0
p17
sVsg_status_list
p18
Vprod
p19
sVdescription
p20
V[No wiki release notes found]
p21
sVtags
p22
(lp23
sVsg_detailed_release_notes
p24
(dp25
Vurl
p26
Vhttps://community.shotgridsoftware.com/t/shotgrid-integration-1-6-release-notes/17759
p27
sVname
p28
Vv1.6.0
p29
sVcontent_type
p30
NsVlink_type
p31
Vweb
p32
sg13
VAttachment
p33
sg15
I30582
ssVsg_documentation
p34
NsVsg_payload
p35
(dp36
g26
Vhttps://s3-proxy.shotgunstudio.com/d18c13bf0e59a9a82f18be518a1b6b508bcbd774/4d2863bea08a0d0bf41c715991952db6a5b0df0e/tk-config-default2_v1.6.0.zip?response-content-disposition=filename%3D%22tk-config-default2_v1.6.0.zip%22&x-amz-meta-user-id=42&x-amz-meta-user-type=ApiUser&X-Amz-Algorithm=AWS4-HMAC-SHA256&X-Amz-Credential=ASIAYJG6Z4JIYWWEUXHN%2F20231127%2Fus-west-2%2Fs3%2Faws4_request&X-Amz-Date=20231127T222239Z&X-Amz-SignedHeaders=host&X-Amz-Expires=900&X-Amz-Security-Token=IQoJb3JpZ2luX2VjEFYaCXVzLWVhc3QtMSJIMEYCIQCwfl4G9TtIwXsZHt2GKSPOEPLQw3iJj9lra2CFWV6JIwIhAMhWug8vPOo9T%2FIUJRRKtp8kqrF3rPSHYjqCk5EGffCKKqECCK%2F%2F%2F%2F%2F%2F%2F%2F%2F%2F%2FwEQABoMNTY5NTUwNDMwODAxIgytIxUA23i%2B4l%2FCrAIq9QFEHk9%2Biqmy9umFs96ttWNtAfTQkSTHhV5T1uE19qXEAnYNhpuOhQePH7QAZH0zJrkELCmKcw6uIGCxNX3S2M0vvmhlig3eA%2Br90tbVhRk07pCRJNPLsDA7kp5lmdWjDjSFM934UoCaccYRWmaKjLr08g1gSmrMHsejMfYanh591mwvb8xYWdFkSjwjHWwNQ7n53X%2B%2FMYSW7cVitxWrvrGCR2n2bRZorZ2Ge0nTkhFf8R%2FUEbEQSEZpZY1XhLLbeXy6XDBfBO971s6sbEeTPczNp4gE6QMnriTaYsgiQjY%2B%2BrbYNbSVZ%2FEeOnYt9bN2YQ8ISoF1VDC7oJSrBjqcAVPS3wn016RmOyBKb5wdtJwecOhDKORlGeXb3Qf27Dr%2B2naB3K7H1ypCC5IkYLXSNTSVIodv%2FVcMszXWXCZ4WFp%2BFWDiOC7M4iox6ZtRRM%2BarRiOp6GknzI3EF4VgeJh56feXOn3aTPjalwd0mHXL9Q%2BihjuiXPuyDYDT6BdmsTLhqWRQQtmXo1FQDx2AIisr3zS3TcT8b3hy%2B89fQ%3D%3D&X-Amz-Signature=9f7213ab6aee9e40c0f785c23247e0fb14dce1562994bee499b833d0905bb663
p37
sg28
Vtk-config-default2_v1.6.0.zip
p38
sg30
Vapplication/zip
p39
sg31
Vupload
p40
sg13
VAttachment
p41
sg15
I30576
sss.