(dp0
Vsg_bundle_data
p1
(dp2
Vtype
p3
VCustomNonProjectEntity03
p4
sVid
p5
I7
sVsg_system_name
p6
Vtk-3dsmax
p7
sVsg_status_list
p8
Vdepl
p9
sVsg_deprecation_message
p10
NssVsg_version_data
p11
(dp12
Vtype
p13
VCustomNonProjectEntity04
p14
sVid
p15
I3710
sVcode
p16
Vv1.2.5
p17
sVsg_status_list
p18
Vprod
p19
sVdescription
p20
VMinor fix with versioning names
p21
sVtags
p22
(lp23
sVsg_detailed_release_notes
p24
(dp25
Vurl
p26
Vhttps://community.shotgridsoftware.com/t/a-new-version-of-tk-3dsmax-has-been-released/13895/7
p27
sVname
p28
Vv1.2.5
p29
sVcontent_type
p30
NsVlink_type
p31
Vweb
p32
sg13
VAttachment
p33
sg15
I29735
ssVsg_documentation
p34
(dp35
g26
Vhttps://developer.shotgridsoftware.com/219493317
p36
sg28
VDocumentation
p37
sg30
Nsg31
Vweb
p38
sg13
VAttachment
p39
sg15
I29703
ssVsg_payload
p40
(dp41
g26
Vhttps://s3-proxy.shotgunstudio.com/d18c13bf0e59a9a82f18be518a1b6b508bcbd774/8887208ac5403301e90e5f45c0b33b01780b56d6/tk-3dsmax_v1.2.5.zip?response-content-disposition=filename%3D%22tk-3dsmax_v1.2.5.zip%22&x-amz-meta-user-id=42&x-amz-meta-user-type=ApiUser&X-Amz-Algorithm=AWS4-HMAC-SHA256&X-Amz-Credential=ASIAYJG6Z4JIZT6E3RHO%2F20231115%2Fus-west-2%2Fs3%2Faws4_request&X-Amz-Date=20231115T013404Z&X-Amz-SignedHeaders=host&X-Amz-Expires=900&X-Amz-Security-Token=IQoJb3JpZ2luX2VjECEaCXVzLWVhc3QtMSJHMEUCIQCTk8AAV%2BJ12afA%2FsN4qjRHqi6asq4mmYNMg1WoL9lwLwIgEDI9JFuR%2FaSfzxGU21phG7rWpYem1YhA8dCJa%2BNcGnMqmAIIahAAGgw1Njk1NTA0MzA4MDEiDPRdQlctqN%2Brm3sDqSr1AUf4z3spiKDt1A02NOYaKl8TmuhCA3QY4XRTnXonOkIrLIJjsVViNiznW20la4f7dSWAjjp4XK6WOow%2FAAhCuq0uz1yHYl3G2wGnsSsJyIWv0mjNgxJKhVtTp21y3OU6gd0gYlah7UQ0JFoS8soQsWeIFNFAs%2BF6bYrxnSUrcvD8oYBub11ea7TsTpyR3H2Yn7lyjQ3XTcj5Q7AttugIwZzB2B5PQmlkdCPAq%2BGiq8fDw%2F4%2B1%2BxMyB9t60HyUegqlj76LwwiBtZQmCEvWK1m%2B2nNcQVTy1lQFGIyvTRr8RSu0y0Q8rJ7OG6mExEjMG4Hq62bneLxMKys0KoGOp0Bimw6%2BHOO%2BkGWjg4YAzTWENvgoHqDAAzPsvSFyuAPDuz%2FxOIJ8K3KQvNxm58UbGhPGjhjgDn04TNnByEHw7BSEow6ibt4A%2Ba874bH1pk6CbQIOakZAwDDOcTo1iOPY09sf1nRZ2ym4%2BwESbjcDibZY3ztZJzpHOW7px7tvIVdXJfx7P3hj4rjn9CdqvttXt4YJqRR01g6Ta97Lrl62A%3D%3D&X-Amz-Signature=7d116e9deed972d0358cf4c4f16a69b5f5c3e26c87a7561ca7138dc83969ba68
p42
sg28
Vtk-3dsmax_v1.2.5.zip
p43
sg30
Vapplication/zip
p44
sg31
Vupload
p45
sg13
VAttachment
p46
sg15
I29704
sss.