(dp0
Vsg_bundle_data
p1
(dp2
Vtype
p3
VCustomNonProjectEntity03
p4
sVid
p5
I16
sVsg_system_name
p6
Vtk-3dsmaxplus
p7
sVsg_status_list
p8
Vhidden
p9
sVsg_deprecation_message
p10
VThe tk-3dsmaxplus engine has been deprecated. We recommend that you upgrade your configuration to the new tk-3dsmax (https://github.com/shotgunsoftware/tk-3dsmax) engine. Versions of 3dsMax 2021 and up will only be supported by the new engine. Visit https://developer.shotgunsoftware.com/tk-3dsmax if you want to learn more on how to migrate your environment to the new engine.
p11
ssVsg_version_data
p12
(dp13
Vtype
p14
VCustomNonProjectEntity04
p15
sVid
p16
I3058
sVcode
p17
Vv0.6.2
p18
sVsg_status_list
p19
Vprod
p20
sVdescription
p21
VShotGrid branding updates.
p22
sVtags
p23
(lp24
sVsg_detailed_release_notes
p25
(dp26
Vurl
p27
Vhttps://community.shotgridsoftware.com/t/a-new-version-of-tk-3dsmaxplus-has-been-released/14114/4
p28
sVname
p29
Vv0.6.2
p30
sVcontent_type
p31
NsVlink_type
p32
Vweb
p33
sg14
VAttachment
p34
sg16
I27870
ssVsg_documentation
p35
(dp36
g27
Vhttps://developer.shotgridsoftware.com/219050628
p37
sg29
VDocumentation
p38
sg31
Nsg32
Vweb
p39
sg14
VAttachment
p40
sg16
I27789
ssVsg_payload
p41
(dp42
g27
Vhttps://s3-proxy.shotgunstudio.com/d18c13bf0e59a9a82f18be518a1b6b508bcbd774/af11f27a235b2679855298c5105c352a782764de/tk-3dsmaxplus_v0.6.2.zip?response-content-disposition=filename%3D%22tk-3dsmaxplus_v0.6.2.zip%22&x-amz-meta-user-id=42&x-amz-meta-user-type=ApiUser&X-Amz-Algorithm=AWS4-HMAC-SHA256&X-Amz-Credential=ASIAYJG6Z4JI3MDY7ZHK%2F20231115%2Fus-west-2%2Fs3%2Faws4_request&X-Amz-Date=20231115T013335Z&X-Amz-SignedHeaders=host&X-Amz-Expires=900&X-Amz-Security-Token=IQoJb3JpZ2luX2VjECIaCXVzLWVhc3QtMSJHMEUCIQCN4s5JDKGCcBWYFdXSvk%2FD64TV%2FyTXjFt5hcp7EknYBgIgIHCk%2FiAmHeWbdI2CirPXhvvhjlV8AAyf4MaJNUEyueoqmAIIahAAGgw1Njk1NTA0MzA4MDEiDOuJ2XG5AxNYh59CASr1AX0jD2nnGv1cdMnb4IlypJETvcCK6dBvmRGDbOuztO3YAVbu38g9mehZLUjlQpt1zTIuUgwH64wtIWEGViJfPkbr7rISYeIUO3qhzeDA27SgRZdNynSm%2BMsvq9%2FUwDJvaV%2FGKlz5kFU1sepGush8ofSPMmT8XuX5%2BfMUrcqX61CDuaLhbtCtqFTZymi8xkO9rLNEl7I%2FAmjklDT%2BmAqv%2BjTgopXvQFDvs5536zIMZJ756EH%2Bi202K1824l1%2BrazGmuzksr5vg3bfMuaL89KRVxHnMPCOyrHDXKFb%2FH4ggQHvCU%2B5UzMLyjbmYMX7Hx4QCVcO1wMTMLq00KoGOp0BjRMx%2FEX4iS4uIqPwxuFY3Sh23%2BGoOeUvjMZJBw3Vp6MiFQv1wB18M4ViHgaYjyZjae5LKWKEbli4qQ8d%2BAr54A9ZtpoIHYlgfC16wEnBRMsIwgn7LzROVhgRz4vEm6azkfu%2BHzg1ibbNNg7yVigZ0oU7W42qbBIMXarqHDCxa%2F7kTTLYrskVp0KxAa6daaB1Uhmvm6gbaG0voBY1qA%3D%3D&X-Amz-Signature=cbd4f844d421e7ef32656a902ee5cc1a44ccdbd738256e311666d1af3a623e7c
p43
sg29
Vtk-3dsmaxplus_v0.6.2.zip
p44
sg31
Vapplication/zip
p45
sg32
Vupload
p46
sg14
VAttachment
p47
sg16
I27790
sss.