(dp0
Vsg_bundle_data
p1
(dp2
Vtype
p3
VCustomNonProjectEntity02
p4
sVid
p5
I155
sVsg_system_name
p6
Vtk-multi-pythonconsole
p7
sVsg_status_list
p8
Vdepl
p9
sVsg_deprecation_message
p10
NssVsg_version_data
p11
(dp12
Vtype
p13
VCustomNonProjectEntity05
p14
sVid
p15
I4420
sVcode
p16
Vv1.3.1
p17
sVsg_status_list
p18
Vprod
p19
sVdescription
p20
VReplacing shotgunsoftware urls with Autodesk Knowledge Network and ShotGrid Developer Documentation pages.
p21
sVtags
p22
(lp23
sVsg_detailed_release_notes
p24
(dp25
Vurl
p26
Vhttps://community.shotgridsoftware.com/t/a-new-version-of-tk-multi-pythonconsole-has-been-released/14140/3
p27
sVname
p28
Vv1.3.1
p29
sVcontent_type
p30
NsVlink_type
p31
Vweb
p32
sg13
VAttachment
p33
sg15
I27038
ssVsg_documentation
p34
(dp35
g26
Vhttps://developer.shotgridsoftware.com/219033108
p36
sg28
VDocumentation
p37
sg30
Nsg31
Vweb
p38
sg13
VAttachment
p39
sg15
I26940
ssVsg_payload
p40
(dp41
g26
Vhttps://s3-proxy.shotgunstudio.com/d18c13bf0e59a9a82f18be518a1b6b508bcbd774/33db891117bf858eeb48245951c333a2e6b6d718/tk-multi-pythonconsole_v1.3.1.zip?response-content-disposition=filename%3D%22tk-multi-pythonconsole_v1.3.1.zip%22&x-amz-meta-user-id=42&x-amz-meta-user-type=ApiUser&X-Amz-Algorithm=AWS4-HMAC-SHA256&X-Amz-Credential=ASIAYJG6Z4JI544ZDREU%2F20231115%2Fus-west-2%2Fs3%2Faws4_request&X-Amz-Date=20231115T013344Z&X-Amz-SignedHeaders=host&X-Amz-Expires=900&X-Amz-Security-Token=IQoJb3JpZ2luX2VjECIaCXVzLWVhc3QtMSJHMEUCIAqHEnvtTwkArQiKiCGYPG916zKrIwgGn47BrIhnIg%2FIAiEA4Nc59Aap9rYu%2BNi2sxGtFAs6iK84stdXweeJsD%2FoIf8qmAIIaxAAGgw1Njk1NTA0MzA4MDEiDAhKz4wrMLg3vcxJcir1AQTNJFCf4NRS5LI4%2ByA2UmlE3AHHEgfc%2FZR0ZXZsjCr%2BMO4X%2BuquGZUseB0r5EnrbZuAuLvW2e8hAEOsjFlrx5Z33vXUEI5kGG9SKy3Qj%2F6udLfID3eUsPQRTpyk7G8XbYVQY2n029FqiE%2F8sJVrZxV%2B%2FDxeN9M5uXAi8eFYP3UaWSgYEpdszdhwEiUzIDQ19JjBUuY%2FPHmqaxaLCP3zpZXgJt%2BjYWFqnkx92M7x5dRJk39W3VcKSqQDyYLXULQ2Vn%2FlERFxC6ziti7%2BQzGTkf%2BaAPWPffEoUHcVL3P4XFst4e0HrP7Nkaa%2F%2B4E633Q9JPEstLq8MJm%2F0KoGOp0Bz5UMenDzbyUJ6GhSv6jMUykxtYx31dVOwUpnp7kua%2FR63dqZWmbmCmprC7TXBeqBteQmuF0UYOeM1vx6uZVDArrkgF8WsnWNtKrn77CUIUuZGXchbO0bd%2ByMiJwYu9FVGSngnorYEcF9yI0QP2N7sfr0wyNsd10in6qBKNvnMiGhXmvFwp37axTGKdwDhZj8PgOMIP%2BjCikjcZedJg%3D%3D&X-Amz-Signature=087c6881478e7b44167c6cd749bba20fc6b71c8291430516651c0e29e1b585a5
p42
sg28
Vtk-multi-pythonconsole_v1.3.1.zip
p43
sg30
Vapplication/zip
p44
sg31
Vupload
p45
sg13
VAttachment
p46
sg15
I26941
sss.