(dp0
Vsg_bundle_data
p1
(dp2
Vtype
p3
VCustomNonProjectEntity02
p4
sVid
p5
I150
sVsg_system_name
p6
Vtk-multi-shotgunpanel
p7
sVsg_status_list
p8
Vdepl
p9
sVsg_deprecation_message
p10
NssVsg_version_data
p11
(dp12
Vtype
p13
VCustomNonProjectEntity05
p14
sVid
p15
I5301
sVcode
p16
Vv1.8.6
p17
sVsg_status_list
p18
Vprod
p19
sVdescription
p20
VExtend the listing of entities from 50 to 200 items. Display a message regarding the maximum number of items displayed and partial data loaded from ShotGrid.
p21
sVtags
p22
(lp23
sVsg_detailed_release_notes
p24
(dp25
Vurl
p26
Vhttps://community.shotgridsoftware.com/t/a-new-version-of-tk-multi-shotgunpanel-has-been-released/14147/8
p27
sVname
p28
Vv1.8.6
p29
sVcontent_type
p30
NsVlink_type
p31
Vweb
p32
sg13
VAttachment
p33
sg15
I29821
ssVsg_documentation
p34
(dp35
g26
Vhttps://developer.shotgridsoftware.com/219033098
p36
sg28
VDocumentation
p37
sg30
Nsg31
Vweb
p38
sg13
VAttachment
p39
sg15
I29769
ssVsg_payload
p40
(dp41
g26
Vhttps://s3-proxy.shotgunstudio.com/d18c13bf0e59a9a82f18be518a1b6b508bcbd774/f66f9d56a988150c24e79fd540b927c242a7323f/tk-multi-shotgunpanel_v1.8.6.zip?response-content-disposition=filename%3D%22tk-multi-shotgunpanel_v1.8.6.zip%22&x-amz-meta-user-id=42&x-amz-meta-user-type=ApiUser&X-Amz-Algorithm=AWS4-HMAC-SHA256&X-Amz-Credential=ASIAYJG6Z4JI3MDY7ZHK%2F20231115%2Fus-west-2%2Fs3%2Faws4_request&X-Amz-Date=20231115T013354Z&X-Amz-SignedHeaders=host&X-Amz-Expires=900&X-Amz-Security-Token=IQoJb3JpZ2luX2VjECIaCXVzLWVhc3QtMSJHMEUCIQCN4s5JDKGCcBWYFdXSvk%2FD64TV%2FyTXjFt5hcp7EknYBgIgIHCk%2FiAmHeWbdI2CirPXhvvhjlV8AAyf4MaJNUEyueoqmAIIahAAGgw1Njk1NTA0MzA4MDEiDOuJ2XG5AxNYh59CASr1AX0jD2nnGv1cdMnb4IlypJETvcCK6dBvmRGDbOuztO3YAVbu38g9mehZLUjlQpt1zTIuUgwH64wtIWEGViJfPkbr7rISYeIUO3qhzeDA27SgRZdNynSm%2BMsvq9%2FUwDJvaV%2FGKlz5kFU1sepGush8ofSPMmT8XuX5%2BfMUrcqX61CDuaLhbtCtqFTZymi8xkO9rLNEl7I%2FAmjklDT%2BmAqv%2BjTgopXvQFDvs5536zIMZJ756EH%2Bi202K1824l1%2BrazGmuzksr5vg3bfMuaL89KRVxHnMPCOyrHDXKFb%2FH4ggQHvCU%2B5UzMLyjbmYMX7Hx4QCVcO1wMTMLq00KoGOp0BjRMx%2FEX4iS4uIqPwxuFY3Sh23%2BGoOeUvjMZJBw3Vp6MiFQv1wB18M4ViHgaYjyZjae5LKWKEbli4qQ8d%2BAr54A9ZtpoIHYlgfC16wEnBRMsIwgn7LzROVhgRz4vEm6azkfu%2BHzg1ibbNNg7yVigZ0oU7W42qbBIMXarqHDCxa%2F7kTTLYrskVp0KxAa6daaB1Uhmvm6gbaG0voBY1qA%3D%3D&X-Amz-Signature=f0b785044d34848d49f8d33b6ea17fbfaf55fb40765b8820b50474d875e7e8c8
p42
sg28
Vtk-multi-shotgunpanel_v1.8.6.zip
p43
sg30
Vapplication/zip
p44
sg31
Vupload
p45
sg13
VAttachment
p46
sg15
I29770
sss.